target datalayout = "e-m:e-p270:32:32-p271:32:32-p272:64:64-i64:64-i128:128-f80:128-n8:16:32:64-S128"
target triple = "x86_64-pc-linux-gnu"

%struct.IAMFCodecConfig = type { i32, i32, i32, i32, i32, i32, i32, ptr }

; Function Attrs: alwaysinline nounwind uwtable
define internal i64 @avio_tell(ptr noundef %0) #6 {
  %2 = alloca ptr, align 8
  store ptr %0, ptr %2, align 8, !tbaa !26
  %3 = load ptr, ptr %2, align 8, !tbaa !26
  %4 = call i64 @avio_seek(ptr noundef %3, i64 noundef 0, i32 noundef 1)
  ret i64 %4
}

; Function Attrs: nounwind uwtable
define internal i32 @flac_decoder_config(ptr noundef %0, ptr noundef %1, i32 noundef %2) #0 {
  %4 = alloca i32, align 4
  %5 = alloca ptr, align 8
  %6 = alloca ptr, align 8
  %7 = alloca i32, align 4
  %8 = alloca i32, align 4
  %9 = alloca i32, align 4
  %10 = alloca i32, align 4
  store ptr %0, ptr %5, align 8, !tbaa !30
  store ptr %1, ptr %6, align 8, !tbaa !26
  store i32 %2, ptr %7, align 4, !tbaa !9
  call void @llvm.lifetime.start.p0(i64 4, ptr %8) #12
  call void @llvm.lifetime.start.p0(i64 4, ptr %9) #12
  %11 = load ptr, ptr %5, align 8, !tbaa !30
  %12 = getelementptr inbounds nuw %struct.IAMFCodecConfig, ptr %11, i32 0, i32 4
  %13 = load i32, ptr %12, align 8, !tbaa !48
  %14 = icmp ne i32 %13, 0
  br i1 %14, label %15, label %16

15:                                               ; preds = %3
  store i32 -1094995529, ptr %4, align 4
  store i32 1, ptr %10, align 4
  br label %82

16:                                               ; preds = %3
  %17 = load ptr, ptr %6, align 8, !tbaa !26
  %18 = call i64 @avio_skip(ptr noundef %17, i64 noundef 4)
  %19 = load i32, ptr %7, align 4, !tbaa !9
  %20 = sext i32 %19 to i64
  %21 = load ptr, ptr %6, align 8, !tbaa !26
  %22 = call i64 @avio_tell(ptr noundef %21)
  %23 = sub nsw i64 %20, %22
  %24 = trunc i64 %23 to i32
  store i32 %24, ptr %9, align 4, !tbaa !9
  %25 = load i32, ptr %9, align 4, !tbaa !9
  %26 = icmp slt i32 %25, 34
  br i1 %26, label %27, label %28

27:                                               ; preds = %16
  store i32 -1094995529, ptr %4, align 4
  store i32 1, ptr %10, align 4
  br label %82

28:                                               ; preds = %16
  %29 = load i32, ptr %9, align 4, !tbaa !9
  %30 = sext i32 %29 to i64
  %31 = call noalias ptr @av_malloc(i64 noundef %30)
  %32 = load ptr, ptr %5, align 8, !tbaa !30
  %33 = getelementptr inbounds nuw %struct.IAMFCodecConfig, ptr %32, i32 0, i32 7
  store ptr %31, ptr %33, align 8, !tbaa !49
  %34 = load ptr, ptr %5, align 8, !tbaa !30
  %35 = getelementptr inbounds nuw %struct.IAMFCodecConfig, ptr %34, i32 0, i32 7
  %36 = load ptr, ptr %35, align 8, !tbaa !49
  %37 = icmp ne ptr %36, null
  br i1 %37, label %39, label %38

38:                                               ; preds = %28
  store i32 -12, ptr %4, align 4
  store i32 1, ptr %10, align 4
  br label %82

39:                                               ; preds = %28
  %40 = load ptr, ptr %6, align 8, !tbaa !26
  %41 = load ptr, ptr %5, align 8, !tbaa !30
  %42 = getelementptr inbounds nuw %struct.IAMFCodecConfig, ptr %41, i32 0, i32 7
  %43 = load ptr, ptr %42, align 8, !tbaa !49
  %44 = load i32, ptr %9, align 4, !tbaa !9
  %45 = call i32 @ffio_read_size(ptr noundef %40, ptr noundef %43, i32 noundef %44)
  store i32 %45, ptr %8, align 4, !tbaa !9
  %46 = load i32, ptr %8, align 4, !tbaa !9
  %47 = icmp slt i32 %46, 0
  br i1 %47, label %48, label %50

48:                                               ; preds = %39
  %49 = load i32, ptr %8, align 4, !tbaa !9
  store i32 %49, ptr %4, align 4
  store i32 1, ptr %10, align 4
  br label %82

50:                                               ; preds = %39
  %51 = load i32, ptr %9, align 4, !tbaa !9
  %52 = load ptr, ptr %5, align 8, !tbaa !30
  %53 = getelementptr inbounds nuw %struct.IAMFCodecConfig, ptr %52, i32 0, i32 6
  store i32 %51, ptr %53, align 8, !tbaa !87
  %54 = load ptr, ptr %5, align 8, !tbaa !30
  %55 = getelementptr inbounds nuw %struct.IAMFCodecConfig, ptr %54, i32 0, i32 7
  %56 = load ptr, ptr %55, align 8, !tbaa !49
  %57 = getelementptr inbounds i8, ptr %56, i64 10
  %58 = getelementptr inbounds i8, ptr %57, i64 0
  %59 = load i8, ptr %58, align 1, !tbaa !20
  %60 = zext i8 %59 to i32
  %61 = shl i32 %60, 16
  %62 = load ptr, ptr %5, align 8, !tbaa !30
  %63 = getelementptr inbounds nuw %struct.IAMFCodecConfig, ptr %62, i32 0, i32 7
  %64 = load ptr, ptr %63, align 8, !tbaa !49
  %65 = getelementptr inbounds i8, ptr %64, i64 10
  %66 = getelementptr inbounds i8, ptr %65, i64 1
  %67 = load i8, ptr %66, align 1, !tbaa !20
  %68 = zext i8 %67 to i32
  %69 = shl i32 %68, 8
  %70 = or i32 %61, %69
  %71 = load ptr, ptr %5, align 8, !tbaa !30
  %72 = getelementptr inbounds nuw %struct.IAMFCodecConfig, ptr %71, i32 0, i32 7
  %73 = load ptr, ptr %72, align 8, !tbaa !49
  %74 = getelementptr inbounds i8, ptr %73, i64 10
  %75 = getelementptr inbounds i8, ptr %74, i64 2
  %76 = load i8, ptr %75, align 1, !tbaa !20
  %77 = zext i8 %76 to i32
  %78 = or i32 %70, %77
  %79 = ashr i32 %78, 4
  %80 = load ptr, ptr %5, align 8, !tbaa !30
  %81 = getelementptr inbounds nuw %struct.IAMFCodecConfig, ptr %80, i32 0, i32 5
  store i32 %79, ptr %81, align 4, !tbaa !84
  store i32 0, ptr %4, align 4
  store i32 1, ptr %10, align 4
  br label %82

82:                                               ; preds = %50, %48, %38, %27, %15
  call void @llvm.lifetime.end.p0(i64 4, ptr %9) #12
  call void @llvm.lifetime.end.p0(i64 4, ptr %8) #12
  %83 = load i32, ptr %4, align 4
  ret i32 %83
}