; Function Attrs: nounwind uwtable
define internal fastcc range(i32 -2147483648, 1) i32 @flac_decoder_config(ptr noundef nonnull captures(none) %0, ptr noundef nonnull %1, i32 noundef %2) unnamed_addr #2 {
  %4 = getelementptr inbounds nuw i8, ptr %0, i64 16
  %5 = load i32, ptr %4, align 8, !tbaa !28
  %.not = icmp eq i32 %5, 0
  br i1 %.not, label %6, label %37

6:                                                ; preds = %3
  %7 = tail call i64 @avio_skip(ptr noundef nonnull %1, i64 noundef 4) #10
  %8 = tail call i64 @avio_seek(ptr noundef nonnull %1, i64 noundef 0, i32 noundef 1) #10
  %9 = trunc i64 %8 to i32
  %10 = sub i32 %2, %9
  %11 = icmp slt i32 %10, 34
  br i1 %11, label %37, label %12

12:                                               ; preds = %6
  %13 = zext nneg i32 %10 to i64
  %14 = tail call noalias ptr @av_malloc(i64 noundef %13) #10
  %15 = getelementptr inbounds nuw i8, ptr %0, i64 32
  store ptr %14, ptr %15, align 8, !tbaa !29
  %.not22 = icmp eq ptr %14, null
  br i1 %.not22, label %37, label %16

16:                                               ; preds = %12
  %17 = tail call i32 @ffio_read_size(ptr noundef nonnull %1, ptr noundef nonnull %14, i32 noundef %10) #10
  %18 = icmp slt i32 %17, 0
  br i1 %18, label %37, label %19

19:                                               ; preds = %16
  %20 = getelementptr inbounds nuw i8, ptr %0, i64 24
  store i32 %10, ptr %20, align 8, !tbaa !66
  %21 = load ptr, ptr %15, align 8, !tbaa !29
  %22 = getelementptr inbounds nuw i8, ptr %21, i64 10
  %23 = load i8, ptr %22, align 1, !tbaa !4
  %24 = zext i8 %23 to i32
  %25 = shl nuw nsw i32 %24, 16
  %26 = getelementptr inbounds nuw i8, ptr %21, i64 11
  %27 = load i8, ptr %26, align 1, !tbaa !4
  %28 = zext i8 %27 to i32
  %29 = shl nuw nsw i32 %28, 8
  %30 = or disjoint i32 %29, %25
  %31 = getelementptr inbounds nuw i8, ptr %21, i64 12
  %32 = load i8, ptr %31, align 1, !tbaa !4
  %33 = zext i8 %32 to i32
  %34 = or disjoint i32 %30, %33
  %35 = lshr i32 %34, 4
  %36 = getelementptr inbounds nuw i8, ptr %0, i64 20
  store i32 %35, ptr %36, align 4, !tbaa !63
  br label %37

37:                                               ; preds = %16, %12, %6, %3, %19
  %.0 = phi i32 [ 0, %19 ], [ -1094995529, %3 ], [ -1094995529, %6 ], [ -12, %12 ], [ %17, %16 ]
  ret i32 %.0
}